target datalayout = "e-m:e-p270:32:32-p271:32:32-p272:64:64-i64:64-i128:128-f80:128-n8:16:32:64-S128"
target triple = "x86_64-pc-linux-gnu"

%struct.llhttp__internal_s = type { i32, ptr, ptr, i32, ptr, ptr, ptr, ptr, i64, i8, i8, i8, i8, i8, i16, i8, i8, i16, i16, i8, ptr }

; Function Attrs: nounwind uwtable
define i32 @llhttp__internal__c_mul_add_status_code(ptr noundef %0, ptr noundef %1, ptr noundef %2, i32 noundef %3) #0 {
  %5 = alloca i32, align 4
  %6 = alloca ptr, align 8
  %7 = alloca ptr, align 8
  %8 = alloca ptr, align 8
  %9 = alloca i32, align 4
  store ptr %0, ptr %6, align 8, !tbaa !3
  store ptr %1, ptr %7, align 8, !tbaa !8
  store ptr %2, ptr %8, align 8, !tbaa !8
  store i32 %3, ptr %9, align 4, !tbaa !17
  %10 = load ptr, ptr %6, align 8, !tbaa !3
  %11 = getelementptr inbounds nuw %struct.llhttp__internal_s, ptr %10, i32 0, i32 18
  %12 = load i16, ptr %11, align 4, !tbaa !26
  %13 = zext i16 %12 to i32
  %14 = icmp sgt i32 %13, 6553
  br i1 %14, label %15, label %16

15:                                               ; preds = %4
  store i32 1, ptr %5, align 4
  br label %53

16:                                               ; preds = %4
  %17 = load ptr, ptr %6, align 8, !tbaa !3
  %18 = getelementptr inbounds nuw %struct.llhttp__internal_s, ptr %17, i32 0, i32 18
  %19 = load i16, ptr %18, align 4, !tbaa !26
  %20 = zext i16 %19 to i32
  %21 = mul nsw i32 %20, 10
  %22 = trunc i32 %21 to i16
  store i16 %22, ptr %18, align 4, !tbaa !26
  %23 = load i32, ptr %9, align 4, !tbaa !17
  %24 = icmp sge i32 %23, 0
  br i1 %24, label %25, label %35

25:                                               ; preds = %16
  %26 = load ptr, ptr %6, align 8, !tbaa !3
  %27 = getelementptr inbounds nuw %struct.llhttp__internal_s, ptr %26, i32 0, i32 18
  %28 = load i16, ptr %27, align 4, !tbaa !26
  %29 = zext i16 %28 to i32
  %30 = load i32, ptr %9, align 4, !tbaa !17
  %31 = sub nsw i32 65535, %30
  %32 = icmp sgt i32 %29, %31
  br i1 %32, label %33, label %34

33:                                               ; preds = %25
  store i32 1, ptr %5, align 4
  br label %53

34:                                               ; preds = %25
  br label %45

35:                                               ; preds = %16
  %36 = load ptr, ptr %6, align 8, !tbaa !3
  %37 = getelementptr inbounds nuw %struct.llhttp__internal_s, ptr %36, i32 0, i32 18
  %38 = load i16, ptr %37, align 4, !tbaa !26
  %39 = zext i16 %38 to i32
  %40 = load i32, ptr %9, align 4, !tbaa !17
  %41 = sub nsw i32 0, %40
  %42 = icmp slt i32 %39, %41
  br i1 %42, label %43, label %44

43:                                               ; preds = %35
  store i32 1, ptr %5, align 4
  br label %53

44:                                               ; preds = %35
  br label %45

45:                                               ; preds = %44, %34
  %46 = load i32, ptr %9, align 4, !tbaa !17
  %47 = load ptr, ptr %6, align 8, !tbaa !3
  %48 = getelementptr inbounds nuw %struct.llhttp__internal_s, ptr %47, i32 0, i32 18
  %49 = load i16, ptr %48, align 4, !tbaa !26
  %50 = zext i16 %49 to i32
  %51 = add nsw i32 %50, %46
  %52 = trunc i32 %51 to i16
  store i16 %52, ptr %48, align 4, !tbaa !26
  store i32 0, ptr %5, align 4
  br label %53

53:                                               ; preds = %45, %43, %33, %15
  %54 = load i32, ptr %5, align 4
  ret i32 %54
}