; Function Attrs: mustprogress nofree norecurse nosync nounwind willreturn memory(argmem: readwrite) uwtable
define range(i32 0, 2) i32 @llhttp__internal__c_mul_add_status_code(ptr noundef captures(none) %0, ptr noundef readnone captures(none) %1, ptr noundef readnone captures(none) %2, i32 noundef %3) local_unnamed_addr #2 {
  %5 = getelementptr inbounds nuw i8, ptr %0, i64 84
  %6 = load i16, ptr %5, align 4, !tbaa !22
  %7 = icmp ugt i16 %6, 6553
  br i1 %7, label %21, label %8

8:                                                ; preds = %4
  %9 = mul nuw i16 %6, 10
  store i16 %9, ptr %5, align 4, !tbaa !22
  %10 = icmp sgt i32 %3, -1
  %11 = zext i16 %9 to i32
  br i1 %10, label %12, label %15

12:                                               ; preds = %8
  %13 = sub nsw i32 65535, %3
  %14 = icmp slt i32 %13, %11
  br i1 %14, label %21, label %18

15:                                               ; preds = %8
  %16 = sub nsw i32 0, %3
  %17 = icmp samesign ult i32 %11, %16
  br i1 %17, label %21, label %18

18:                                               ; preds = %15, %12
  %19 = trunc i32 %3 to i16
  %20 = add i16 %9, %19
  store i16 %20, ptr %5, align 4, !tbaa !22
  br label %21

21:                                               ; preds = %15, %12, %4, %18
  %.0 = phi i32 [ 0, %18 ], [ 1, %4 ], [ 1, %12 ], [ 1, %15 ]
  ret i32 %.0
}